
mmu.elf:     file format elf32-littlearm


Disassembly of section .text:

87800000 <_start>:
87800000:	e10f0000 	mrs	r0, CPSR
87800004:	e3c000f1 	bic	r0, r0, #241	; 0xf1
87800008:	e3800013 	orr	r0, r0, #19
8780000c:	e129f000 	msr	CPSR_fc, r0
87800010:	e51fd000 	ldr	sp, [pc, #-0]	; 87800018 <_start+0x18>
87800014:	ea000061 	b	878001a0 <__main_from_arm>
87800018:	80200000 	eorhi	r0, r0, r0
8780001c:	00001e41 	andeq	r1, r0, r1, asr #28
87800020:	61656100 	cmnvs	r5, r0, lsl #2
87800024:	01006962 	tsteq	r0, r2, ror #18
87800028:	00000014 	andeq	r0, r0, r4, lsl r0
8780002c:	412d3705 	teqmi	sp, r5, lsl #14
87800030:	070a0600 	streq	r0, [sl, -r0, lsl #12]
87800034:	09010841 	stmdbeq	r1, {r0, r6, fp}
87800038:	00040a02 	andeq	r0, r4, r2, lsl #20

8780003c <clk_enable>:
8780003c:	b4f0      	push	{r4, r5, r6, r7}
8780003e:	f244 0078 	movw	r0, #16504	; 0x4078
87800042:	f244 0768 	movw	r7, #16488	; 0x4068
87800046:	f244 066c 	movw	r6, #16492	; 0x406c
8780004a:	f244 0570 	movw	r5, #16496	; 0x4070
8780004e:	f244 0474 	movw	r4, #16500	; 0x4074
87800052:	f244 017c 	movw	r1, #16508	; 0x407c
87800056:	f44f 4281 	mov.w	r2, #16512	; 0x4080
8780005a:	f04f 33ff 	mov.w	r3, #4294967295	; 0xffffffff
8780005e:	f2c0 271c 	movt	r7, #540	; 0x21c
87800062:	f2c0 261c 	movt	r6, #540	; 0x21c
87800066:	f2c0 251c 	movt	r5, #540	; 0x21c
8780006a:	f2c0 241c 	movt	r4, #540	; 0x21c
8780006e:	f2c0 201c 	movt	r0, #540	; 0x21c
87800072:	f2c0 211c 	movt	r1, #540	; 0x21c
87800076:	f2c0 221c 	movt	r2, #540	; 0x21c
8780007a:	603b      	str	r3, [r7, #0]
8780007c:	6033      	str	r3, [r6, #0]
8780007e:	602b      	str	r3, [r5, #0]
87800080:	6023      	str	r3, [r4, #0]
87800082:	6003      	str	r3, [r0, #0]
87800084:	bcf0      	pop	{r4, r5, r6, r7}
87800086:	600b      	str	r3, [r1, #0]
87800088:	6013      	str	r3, [r2, #0]
8780008a:	4770      	bx	lr

8780008c <led_init>:
8780008c:	2068      	movs	r0, #104	; 0x68
8780008e:	f44f 713d 	mov.w	r1, #756	; 0x2f4
87800092:	f24c 0204 	movw	r2, #49156	; 0xc004
87800096:	f44f 4340 	mov.w	r3, #49152	; 0xc000
8780009a:	b4f0      	push	{r4, r5, r6, r7}
8780009c:	f2c0 201e 	movt	r0, #542	; 0x21e
878000a0:	2705      	movs	r7, #5
878000a2:	f241 06b0 	movw	r6, #4272	; 0x10b0
878000a6:	2508      	movs	r5, #8
878000a8:	2400      	movs	r4, #0
878000aa:	f2c0 211e 	movt	r1, #542	; 0x21e
878000ae:	f2c0 2219 	movt	r2, #537	; 0x219
878000b2:	f2c0 2319 	movt	r3, #537	; 0x219
878000b6:	6007      	str	r7, [r0, #0]
878000b8:	600e      	str	r6, [r1, #0]
878000ba:	6015      	str	r5, [r2, #0]
878000bc:	601c      	str	r4, [r3, #0]
878000be:	bcf0      	pop	{r4, r5, r6, r7}
878000c0:	4770      	bx	lr
878000c2:	bf00      	nop

878000c4 <create_page_table>:
878000c4:	f04f 4100 	mov.w	r1, #2147483648	; 0x80000000
878000c8:	0d0b      	lsrs	r3, r1, #20
878000ca:	f501 1180 	add.w	r1, r1, #1048576	; 0x100000
878000ce:	f1b1 4f10 	cmp.w	r1, #2415919104	; 0x90000000
878000d2:	ea4f 5203 	mov.w	r2, r3, lsl #20
878000d6:	ea4f 0383 	mov.w	r3, r3, lsl #2
878000da:	f442 6241 	orr.w	r2, r2, #3088	; 0xc10
878000de:	f103 4310 	add.w	r3, r3, #2415919104	; 0x90000000
878000e2:	f042 020e 	orr.w	r2, r2, #14
878000e6:	601a      	str	r2, [r3, #0]
878000e8:	d1ee      	bne.n	878000c8 <create_page_table+0x4>
878000ea:	2384      	movs	r3, #132	; 0x84
878000ec:	f640 421e 	movw	r2, #3102	; 0xc1e
878000f0:	f2c9 0300 	movt	r3, #36864	; 0x9000
878000f4:	f2c0 2200 	movt	r2, #512	; 0x200
878000f8:	601a      	str	r2, [r3, #0]
878000fa:	4770      	bx	lr

878000fc <main>:
878000fc:	b580      	push	{r7, lr}
878000fe:	f7ff ffe1 	bl	878000c4 <create_page_table>
87800102:	4825      	ldr	r0, [pc, #148]	; (87800198 <main+0x9c>)
87800104:	ee02 0f10 	mcr	15, 0, r0, cr2, cr0, {0}
87800108:	f06f 0000 	mvn.w	r0, #0
8780010c:	ee03 0f10 	mcr	15, 0, r0, cr3, cr0, {0}
87800110:	ee11 0f10 	mrc	15, 0, r0, cr1, cr0, {0}
87800114:	f040 0001 	orr.w	r0, r0, #1
87800118:	ee01 0f10 	mcr	15, 0, r0, cr1, cr0, {0}
8780011c:	f244 0468 	movw	r4, #16488	; 0x4068
87800120:	f244 006c 	movw	r0, #16492	; 0x406c
87800124:	f244 0170 	movw	r1, #16496	; 0x4070
87800128:	f244 0274 	movw	r2, #16500	; 0x4074
8780012c:	f04f 33ff 	mov.w	r3, #4294967295	; 0xffffffff
87800130:	f2c0 241c 	movt	r4, #540	; 0x21c
87800134:	f2c0 201c 	movt	r0, #540	; 0x21c
87800138:	f2c0 211c 	movt	r1, #540	; 0x21c
8780013c:	f2c0 221c 	movt	r2, #540	; 0x21c
87800140:	f244 0778 	movw	r7, #16504	; 0x4078
87800144:	f244 067c 	movw	r6, #16508	; 0x407c
87800148:	f44f 4581 	mov.w	r5, #16512	; 0x4080
8780014c:	6023      	str	r3, [r4, #0]
8780014e:	f2c0 271c 	movt	r7, #540	; 0x21c
87800152:	6003      	str	r3, [r0, #0]
87800154:	f2c0 261c 	movt	r6, #540	; 0x21c
87800158:	600b      	str	r3, [r1, #0]
8780015a:	f2c0 251c 	movt	r5, #540	; 0x21c
8780015e:	6013      	str	r3, [r2, #0]
87800160:	2468      	movs	r4, #104	; 0x68
87800162:	f44f 703d 	mov.w	r0, #756	; 0x2f4
87800166:	f24c 0104 	movw	r1, #49156	; 0xc004
8780016a:	f44f 4240 	mov.w	r2, #49152	; 0xc000
8780016e:	603b      	str	r3, [r7, #0]
87800170:	f2c0 241e 	movt	r4, #542	; 0x21e
87800174:	6033      	str	r3, [r6, #0]
87800176:	f2c0 201e 	movt	r0, #542	; 0x21e
8780017a:	602b      	str	r3, [r5, #0]
8780017c:	f2c0 2119 	movt	r1, #537	; 0x219
87800180:	f2c0 2219 	movt	r2, #537	; 0x219
87800184:	2705      	movs	r7, #5
87800186:	f241 06b0 	movw	r6, #4272	; 0x10b0
8780018a:	2508      	movs	r5, #8
8780018c:	2300      	movs	r3, #0
8780018e:	6027      	str	r7, [r4, #0]
87800190:	6006      	str	r6, [r0, #0]
87800192:	600d      	str	r5, [r1, #0]
87800194:	6013      	str	r3, [r2, #0]
87800196:	e7fe      	b.n	87800196 <main+0x9a>
87800198:	90000000 	andls	r0, r0, r0
8780019c:	00000000 	andeq	r0, r0, r0

878001a0 <__main_from_arm>:
878001a0:	e51ff004 	ldr	pc, [pc, #-4]	; 878001a4 <__main_from_arm+0x4>
878001a4:	878000fd 			; <UNDEFINED> instruction: 0x878000fd
878001a8:	3a434347 	bcc	888d0ecc <_bss_end+0x10d0ccb>
878001ac:	694c2820 	stmdbvs	ip, {r5, fp, sp}^
878001b0:	6f72616e 	svcvs	0x0072616e
878001b4:	43434720 	movtmi	r4, #14112	; 0x3720
878001b8:	392e3420 	stmdbcc	lr!, {r5, sl, ip, sp}
878001bc:	3130322d 	teqcc	r0, sp, lsr #4
878001c0:	31302e37 	teqcc	r0, r7, lsr lr
878001c4:	2e342029 	cdpcs	0, 3, cr2, cr4, cr9, {1}
878001c8:	00342e39 	eorseq	r2, r4, r9, lsr lr
878001cc:	00003441 	andeq	r3, r0, r1, asr #8
878001d0:	61656100 	cmnvs	r5, r0, lsl #2
878001d4:	01006962 	tsteq	r0, r2, ror #18
878001d8:	0000002a 	andeq	r0, r0, sl, lsr #32
878001dc:	412d3705 	teqmi	sp, r5, lsl #14
878001e0:	070a0600 	streq	r0, [sl, -r0, lsl #12]
878001e4:	09010841 	stmdbeq	r1, {r0, r6, fp}
878001e8:	12040a02 	andne	r0, r4, #8192	; 0x2000
878001ec:	15011404 	strne	r1, [r1, #-1028]	; 0x404
878001f0:	18031701 	stmdane	r3, {r0, r8, r9, sl, ip}
878001f4:	1a011901 	bne	87846600 <_bss_end+0x463ff>
878001f8:	1c031b02 	stcne	11, cr1, [r3], {2}
878001fc:	22021e01 	andcs	r1, r2, #1, 28
87800200:	Address 0x0000000087800200 is out of bounds.

